target datalayout = "e-m:e-p270:32:32-p271:32:32-p272:64:64-i64:64-i128:128-f80:128-n8:16:32:64-S128"
target triple = "x86_64-pc-linux-gnu"

%"class.boost::container::pmr::monotonic_buffer_resource" = type { %"class.boost::container::pmr::memory_resource", %"class.boost::container::pmr::block_slist", ptr, i64, i64, ptr, i64 }
%"class.boost::container::pmr::memory_resource" = type { ptr }
%"class.boost::container::pmr::block_slist" = type { %"class.boost::container::pmr::block_slist_base", ptr }
%"class.boost::container::pmr::block_slist_base" = type { %"struct.boost::container::pmr::slist_node" }
%"struct.boost::container::pmr::slist_node" = type { ptr }

; Function Attrs: mustprogress nounwind uwtable
define noundef ptr @_ZN5boost9container3pmr25monotonic_buffer_resource21allocate_from_currentEmm(ptr noundef nonnull align 8 dereferenceable(64) %0, i64 noundef %1, i64 noundef %2) #0 align 2 {
  %4 = alloca ptr, align 8
  %5 = alloca i64, align 8
  %6 = alloca i64, align 8
  %7 = alloca ptr, align 8
  store ptr %0, ptr %4, align 8, !tbaa !3
  store i64 %1, ptr %5, align 8, !tbaa !14
  store i64 %2, ptr %6, align 8, !tbaa !14
  %8 = load ptr, ptr %4, align 8
  call void @llvm.lifetime.start.p0(i64 8, ptr %7) #11
  %9 = getelementptr inbounds nuw %"class.boost::container::pmr::monotonic_buffer_resource", ptr %8, i32 0, i32 2
  %10 = load ptr, ptr %9, align 8, !tbaa !17
  %11 = load i64, ptr %5, align 8, !tbaa !14
  %12 = getelementptr inbounds nuw i8, ptr %10, i64 %11
  store ptr %12, ptr %7, align 8, !tbaa !3
  %13 = load ptr, ptr %7, align 8, !tbaa !3
  %14 = load i64, ptr %6, align 8, !tbaa !14
  %15 = getelementptr inbounds nuw i8, ptr %13, i64 %14
  %16 = getelementptr inbounds nuw %"class.boost::container::pmr::monotonic_buffer_resource", ptr %8, i32 0, i32 2
  store ptr %15, ptr %16, align 8, !tbaa !17
  %17 = load i64, ptr %5, align 8, !tbaa !14
  %18 = load i64, ptr %6, align 8, !tbaa !14
  %19 = add i64 %17, %18
  %20 = getelementptr inbounds nuw %"class.boost::container::pmr::monotonic_buffer_resource", ptr %8, i32 0, i32 3
  %21 = load i64, ptr %20, align 8, !tbaa !18
  %22 = sub i64 %21, %19
  store i64 %22, ptr %20, align 8, !tbaa !18
  %23 = load ptr, ptr %7, align 8, !tbaa !3
  call void @llvm.lifetime.end.p0(i64 8, ptr %7) #11
  ret ptr %23
}