; Function Attrs: mustprogress nofree norecurse nosync nounwind willreturn memory(argmem: readwrite) uwtable
define noundef ptr @_ZN5boost9container3pmr25monotonic_buffer_resource21allocate_from_currentEmm(ptr nocapture noundef nonnull align 8 dereferenceable(64) %0, i64 noundef %1, i64 noundef %2) local_unnamed_addr #0 align 2 {
  %4 = getelementptr inbounds nuw i8, ptr %0, i64 24
  %5 = load ptr, ptr %4, align 8, !tbaa !17
  %6 = getelementptr inbounds nuw i8, ptr %5, i64 %1
  %7 = getelementptr inbounds nuw i8, ptr %6, i64 %2
  store ptr %7, ptr %4, align 8, !tbaa !17
  %8 = getelementptr inbounds nuw i8, ptr %0, i64 32
  %9 = load i64, ptr %8, align 8, !tbaa !18
  %10 = add i64 %2, %1
  %11 = sub i64 %9, %10
  store i64 %11, ptr %8, align 8, !tbaa !18
  ret ptr %6
}